Modules list:
-------------
bar.o:
    CODE              Offs=000000  Size=00027D  Align=00001  Fill=0000
    DATA              Offs=000000  Size=000002  Align=00001  Fill=0000
diskulator.o:
    CODE              Offs=00027D  Size=000BDF  Align=00001  Fill=0000
    RODATA            Offs=000000  Size=0001CB  Align=00001  Fill=0000
    BSS               Offs=000000  Size=000494  Align=00001  Fill=0000
    DATA              Offs=000002  Size=000102  Align=00001  Fill=0000
main.o:
    CODE              Offs=000E5C  Size=0000AE  Align=00001  Fill=0000
    DATA              Offs=000104  Size=000038  Align=00001  Fill=0000
config.o:
    CODE              Offs=000F0A  Size=0005A4  Align=00001  Fill=0000
    RODATA            Offs=0001CB  Size=00015E  Align=00001  Fill=0000
    BSS               Offs=000494  Size=000102  Align=00001  Fill=0000
    DATA              Offs=00013C  Size=000003  Align=00001  Fill=0000
screen.o:
    CODE              Offs=0014AE  Size=00035D  Align=00001  Fill=0000
    RODATA            Offs=000329  Size=000002  Align=00001  Fill=0000
    BSS               Offs=000596  Size=000008  Align=00001  Fill=0000
die.o:
    CODE              Offs=00180B  Size=000009  Align=00001  Fill=0000
crt0.o:
    BSS               Offs=00059E  Size=000005  Align=00001  Fill=0000
    STARTUP           Offs=000000  Size=000068  Align=00001  Fill=0000
sio.o:
    CODE              Offs=001814  Size=000004  Align=00001  Fill=0000
bar-setup-regs.o:
    CODE              Offs=001818  Size=00005F  Align=00001  Fill=0000
/home/thomc/Workspace/cc65/lib/atari.lib(_cursor.o):
    BSS               Offs=0005A3  Size=000001  Align=00001  Fill=0000
/home/thomc/Workspace/cc65/lib/atari.lib(_hextab.o):
    RODATA            Offs=00032B  Size=000010  Align=00001  Fill=0000
/home/thomc/Workspace/cc65/lib/atari.lib(add.o):
    CODE              Offs=001877  Size=00001C  Align=00001  Fill=0000
/home/thomc/Workspace/cc65/lib/atari.lib(addeqsp.o):
    CODE              Offs=001893  Size=000011  Align=00001  Fill=0000
/home/thomc/Workspace/cc65/lib/atari.lib(addysp.o):
    CODE              Offs=0018A4  Size=00000E  Align=00001  Fill=0000
/home/thomc/Workspace/cc65/lib/atari.lib(aslax4.o):
    CODE              Offs=0018B2  Size=000011  Align=00001  Fill=0000
/home/thomc/Workspace/cc65/lib/atari.lib(callmain.o):
    CODE              Offs=0018C3  Size=000017  Align=00001  Fill=0000
    DATA              Offs=00013F  Size=000004  Align=00001  Fill=0000
/home/thomc/Workspace/cc65/lib/atari.lib(cgetc.o):
    CODE              Offs=0018DA  Size=000016  Align=00001  Fill=0000
/home/thomc/Workspace/cc65/lib/atari.lib(condes.o):
    CODE              Offs=0018F0  Size=00000C  Align=00001  Fill=0000
    DATA              Offs=000143  Size=000025  Align=00001  Fill=0000
    ONCE              Offs=000000  Size=00000C  Align=00001  Fill=0000
/home/thomc/Workspace/cc65/lib/atari.lib(decsp1.o):
    CODE              Offs=0018FC  Size=000009  Align=00001  Fill=0000
/home/thomc/Workspace/cc65/lib/atari.lib(decsp2.o):
    CODE              Offs=001905  Size=00000D  Align=00001  Fill=0000
/home/thomc/Workspace/cc65/lib/atari.lib(decsp4.o):
    CODE              Offs=001912  Size=00000D  Align=00001  Fill=0000
/home/thomc/Workspace/cc65/lib/atari.lib(decsp5.o):
    CODE              Offs=00191F  Size=00000D  Align=00001  Fill=0000
/home/thomc/Workspace/cc65/lib/atari.lib(decsp6.o):
    CODE              Offs=00192C  Size=00000D  Align=00001  Fill=0000
/home/thomc/Workspace/cc65/lib/atari.lib(incsp1.o):
    CODE              Offs=001939  Size=000007  Align=00001  Fill=0000
/home/thomc/Workspace/cc65/lib/atari.lib(incsp2.o):
    CODE              Offs=001940  Size=000016  Align=00001  Fill=0000
/home/thomc/Workspace/cc65/lib/atari.lib(incsp3.o):
    CODE              Offs=001956  Size=000005  Align=00001  Fill=0000
/home/thomc/Workspace/cc65/lib/atari.lib(incsp4.o):
    CODE              Offs=00195B  Size=000005  Align=00001  Fill=0000
/home/thomc/Workspace/cc65/lib/atari.lib(incsp5.o):
    CODE              Offs=001960  Size=000005  Align=00001  Fill=0000
/home/thomc/Workspace/cc65/lib/atari.lib(incsp8.o):
    CODE              Offs=001965  Size=000005  Align=00001  Fill=0000
/home/thomc/Workspace/cc65/lib/atari.lib(itoa.o):
    CODE              Offs=00196A  Size=000094  Align=00001  Fill=0000
    RODATA            Offs=00033B  Size=000007  Align=00001  Fill=0000
/home/thomc/Workspace/cc65/lib/atari.lib(kbhit.o):
    CODE              Offs=0019FE  Size=00000B  Align=00001  Fill=0000
/home/thomc/Workspace/cc65/lib/atari.lib(memcpy.o):
    CODE              Offs=001A09  Size=00003C  Align=00001  Fill=0000
/home/thomc/Workspace/cc65/lib/atari.lib(memset.o):
    CODE              Offs=001A45  Size=00005D  Align=00001  Fill=0000
/home/thomc/Workspace/cc65/lib/atari.lib(mul40.o):
    CODE              Offs=001AA2  Size=000021  Align=00001  Fill=0000
/home/thomc/Workspace/cc65/lib/atari.lib(mul8.o):
    CODE              Offs=001AC3  Size=00003A  Align=00001  Fill=0000
/home/thomc/Workspace/cc65/lib/atari.lib(popptr1.o):
    CODE              Offs=001AFD  Size=00000E  Align=00001  Fill=0000
/home/thomc/Workspace/cc65/lib/atari.lib(pusha.o):
    CODE              Offs=001B0B  Size=000016  Align=00001  Fill=0000
/home/thomc/Workspace/cc65/lib/atari.lib(pushax.o):
    CODE              Offs=001B21  Size=00001A  Align=00001  Fill=0000
/home/thomc/Workspace/cc65/lib/atari.lib(pushwsp.o):
    CODE              Offs=001B3B  Size=00001C  Align=00001  Fill=0000
/home/thomc/Workspace/cc65/lib/atari.lib(return1.o):
    CODE              Offs=001B57  Size=000005  Align=00001  Fill=0000
/home/thomc/Workspace/cc65/lib/atari.lib(setcursor.o):
    CODE              Offs=001B5C  Size=00003A  Align=00001  Fill=0000
/home/thomc/Workspace/cc65/lib/atari.lib(staspidx.o):
    CODE              Offs=001B96  Size=000016  Align=00001  Fill=0000
/home/thomc/Workspace/cc65/lib/atari.lib(strcpy.o):
    CODE              Offs=001BAC  Size=00001F  Align=00001  Fill=0000
/home/thomc/Workspace/cc65/lib/atari.lib(zerobss.o):
    CODE              Offs=001BCB  Size=000023  Align=00001  Fill=0000
/home/thomc/Workspace/cc65/lib/atari.lib(zeropage.o):
    ZEROPAGE          Offs=000000  Size=00001A  Align=00001  Fill=0000


Segment list:
-------------
Name                   Start     End    Size  Align
----------------------------------------------------
ZEROPAGE              0000E5  0000FE  00001A  00001
STARTUP               000700  000767  000068  00001
ONCE                  000768  000773  00000C  00001
CODE                  000774  002361  001BEE  00001
RODATA                002362  0026A3  000342  00001
DATA                  0026A4  00280B  000168  00001
BSS                   00280C  002DAF  0005A4  00001


Exports list by name:
---------------------
__BSS_RUN__               00280C RLA    __BSS_SIZE__              0005A4 REA    
__CONSTRUCTOR_COUNT__     000000 REA    __CONSTRUCTOR_TABLE__     000774 RLA    
__DESTRUCTOR_COUNT__      000000 REA    __DESTRUCTOR_TABLE__      0026A4 RLA    
__LOWCODE_RUN__           000768 RLA    __LOWCODE_SIZE__          000000 REA    
__RESERVED_MEMORY__       000000 REA    __STACKSIZE__             000800 REA    
__STARTUP__               000001 REA    __bzero                   0021B9 RLA    
__hextab                  00268D RLA    _bar_clear                000774 RLA    
_bar_set_color            0009DB RLA    _bar_setup_regs           001F8C RLA    
_bar_show                 000784 RLA    _cgetc                    00204E RLA    
_config_connect           0016D8 RLA    _config_run               00170F RLA    
_configured               00167E RLA    _die                      001F7F RLA    
_diskulator_run           0009F1 RLA    _dlist_ptr                002DA4 RLA    
_font_ptr                 002DA8 RLA    _kbhit                    002172 RLA    
_main                     001668 RLA    _memcpy                   00217D RLA    
_mul40                    002216 RLA    _screen_clear             001CBA RLA    
_screen_input             001CCA RLA    _screen_memory            002DA6 RLA    
_screen_puts              001C22 RLA    _siov                     001F88 RLA    
_strcpy                   002320 RLA    _utoa                     00213E RLA    
_video_ptr                002DA2 RLA    addeqysp                  002009 RLA    
addysp                    002019 RLA    addysp1                   002018 RLA    
aslax4                    002026 RLA    callmain                  002037 RLA    
cursor                    002DAF RLA    decsp1                    002070 RLA    
decsp2                    002079 RLA    decsp4                    002086 RLA    
decsp5                    002093 RLA    decsp6                    0020A0 RLA    
donelib                   002064 RLA    incsp1                    0020AD RLA    
incsp2                    0020BC RLA    incsp3                    0020CA RLA    
incsp4                    0020CF RLA    incsp5                    0020D4 RLA    
incsp8                    0020D9 RLA    initlib                   000768 RLA    
popax                     0020B4 RLA    popptr1                   002271 RLA    
ptr1                      0000ED RLZ    ptr2                      0000EF RLZ    
ptr3                      0000F1 RLZ    ptr4                      0000F3 RLZ    
pusha                     002283 RLA    pusha0                    002297 RLA    
pushax                    002299 RLA    pushwysp                  0022B1 RLA    
return1                   0022CB RLA    setcursor                 0022D0 RLA    
sp                        0000E5 RLZ    sreg                      0000E7 RLZ    
staspidx                  00230A RLA    tmp1                      0000F5 RLZ    
tmp4                      0000F8 RLZ    tosadda0                  001FEB RLA    
tosaddax                  001FED RLA    tosmula0                  002237 RLA    
tosumula0                 002237 RLA    zerobss                   00233F RLA    



Exports list by value:
----------------------
__CONSTRUCTOR_COUNT__     000000 REA    __LOWCODE_SIZE__          000000 REA    
__DESTRUCTOR_COUNT__      000000 REA    __RESERVED_MEMORY__       000000 REA    
__STARTUP__               000001 REA    sp                        0000E5 RLZ    
sreg                      0000E7 RLZ    ptr1                      0000ED RLZ    
ptr2                      0000EF RLZ    ptr3                      0000F1 RLZ    
ptr4                      0000F3 RLZ    tmp1                      0000F5 RLZ    
tmp4                      0000F8 RLZ    __BSS_SIZE__              0005A4 REA    
__LOWCODE_RUN__           000768 RLA    initlib                   000768 RLA    
__CONSTRUCTOR_TABLE__     000774 RLA    _bar_clear                000774 RLA    
_bar_show                 000784 RLA    __STACKSIZE__             000800 REA    
_bar_set_color            0009DB RLA    _diskulator_run           0009F1 RLA    
_main                     001668 RLA    _configured               00167E RLA    
_config_connect           0016D8 RLA    _config_run               00170F RLA    
_screen_puts              001C22 RLA    _screen_clear             001CBA RLA    
_screen_input             001CCA RLA    _die                      001F7F RLA    
_siov                     001F88 RLA    _bar_setup_regs           001F8C RLA    
tosadda0                  001FEB RLA    tosaddax                  001FED RLA    
addeqysp                  002009 RLA    addysp1                   002018 RLA    
addysp                    002019 RLA    aslax4                    002026 RLA    
callmain                  002037 RLA    _cgetc                    00204E RLA    
donelib                   002064 RLA    decsp1                    002070 RLA    
decsp2                    002079 RLA    decsp4                    002086 RLA    
decsp5                    002093 RLA    decsp6                    0020A0 RLA    
incsp1                    0020AD RLA    popax                     0020B4 RLA    
incsp2                    0020BC RLA    incsp3                    0020CA RLA    
incsp4                    0020CF RLA    incsp5                    0020D4 RLA    
incsp8                    0020D9 RLA    _utoa                     00213E RLA    
_kbhit                    002172 RLA    _memcpy                   00217D RLA    
__bzero                   0021B9 RLA    _mul40                    002216 RLA    
tosmula0                  002237 RLA    tosumula0                 002237 RLA    
popptr1                   002271 RLA    pusha                     002283 RLA    
pusha0                    002297 RLA    pushax                    002299 RLA    
pushwysp                  0022B1 RLA    return1                   0022CB RLA    
setcursor                 0022D0 RLA    staspidx                  00230A RLA    
_strcpy                   002320 RLA    zerobss                   00233F RLA    
__hextab                  00268D RLA    __DESTRUCTOR_TABLE__      0026A4 RLA    
__BSS_RUN__               00280C RLA    _video_ptr                002DA2 RLA    
_dlist_ptr                002DA4 RLA    _screen_memory            002DA6 RLA    
_font_ptr                 002DA8 RLA    cursor                    002DAF RLA    



Imports list:
-------------
__BSS_RUN__ ([linker generated]):
    zerobss.o                 common/zerobss.s(8)
__BSS_SIZE__ ([linker generated]):
    zerobss.o                 common/zerobss.s(8)
__CONSTRUCTOR_COUNT__ ([linker generated]):
    condes.o                  runtime/condes.s(18)
__CONSTRUCTOR_TABLE__ ([linker generated]):
    condes.o                  runtime/condes.s(18)
__DESTRUCTOR_COUNT__ ([linker generated]):
    condes.o                  runtime/condes.s(19)
__DESTRUCTOR_TABLE__ ([linker generated]):
    condes.o                  runtime/condes.s(19)
__LOWCODE_RUN__ ([linker generated]):
    crt0.o                    src/crt0.s(18)
__LOWCODE_SIZE__ ([linker generated]):
    crt0.o                    src/crt0.s(18)
__RESERVED_MEMORY__ ([linker generated]):
    crt0.o                    src/crt0.s(16)
    [linker generated]        src/atari.cfg(19)
__STACKSIZE__ ([linker generated]):
    [linker generated]        src/atari.cfg(19)
__STARTUP__ (crt0.o):
    main.o                    src/main.s(13)
__bzero (memset.o):
    screen.o                  src/screen.s(469)
    bar.o                     src/bar.s(413)
__hextab (_hextab.o):
    itoa.o                    common/itoa.s(10)
_bar_clear (bar.o):
    config.o                  src/config.s(23)
    main.o                    src/main.s(16)
    diskulator.o              src/diskulator.s(23)
_bar_set_color (bar.o):
    diskulator.o              src/diskulator.s(25)
_bar_setup_regs (bar-setup-regs.o):
    main.o                    src/main.s(15)
_bar_show (bar.o):
    config.o                  src/config.s(24)
    diskulator.o              src/diskulator.s(24)
_cgetc (cgetc.o):
    screen.o                  src/screen.s(14)
    config.o                  src/config.s(15)
    diskulator.o              src/diskulator.s(16)
_config_connect (config.o):
    main.o                    src/main.s(18)
_config_run (config.o):
    main.o                    src/main.s(19)
_configured (config.o):
    main.o                    src/main.s(17)
_die (die.o):
    config.o                  src/config.s(25)
    diskulator.o              src/diskulator.s(26)
_diskulator_run (diskulator.o):
    main.o                    src/main.s(20)
_dlist_ptr (screen.o):
    main.o                    src/main.s(22)
_font_ptr (screen.o):
    main.o                    src/main.s(24)
_kbhit (kbhit.o):
    die.o                     src/die.s(13)
    diskulator.o              src/diskulator.s(15)
_main (main.o):
    callmain.o                runtime/callmain.s(11)
_memcpy (memcpy.o):
    main.o                    src/main.s(14)
_mul40 (mul40.o):
    setcursor.o               atari/setcursor.s(7)
_screen_clear (screen.o):
    config.o                  src/config.s(20)
    diskulator.o              src/diskulator.s(20)
_screen_input (screen.o):
    config.o                  src/config.s(21)
    diskulator.o              src/diskulator.s(21)
_screen_memory (screen.o):
    main.o                    src/main.s(23)
_screen_puts (screen.o):
    config.o                  src/config.s(19)
    diskulator.o              src/diskulator.s(19)
_siov (sio.o):
    config.o                  src/config.s(22)
    diskulator.o              src/diskulator.s(22)
_strcpy (strcpy.o):
    config.o                  src/config.s(13)
    diskulator.o              src/diskulator.s(13)
_utoa (itoa.o):
    diskulator.o              src/diskulator.s(17)
_video_ptr (screen.o):
    main.o                    src/main.s(21)
addeqysp (addeqsp.o):
    screen.o                  src/screen.s(469)
addysp (addysp.o):
    incsp8.o                  runtime/incsp8.s(8)
    incsp5.o                  runtime/incsp5.s(8)
    incsp4.o                  runtime/incsp4.s(8)
    incsp3.o                  runtime/incsp3.s(8)
    screen.o                  src/screen.s(469)
addysp1 (addysp.o):
    itoa.o                    common/itoa.s(9)
aslax4 (aslax4.o):
    diskulator.o              src/diskulator.s(1717)
    diskulator.o              src/diskulator.s(1717)
callmain (callmain.o):
    crt0.o                    src/crt0.s(15)
cursor (_cursor.o):
    setcursor.o               atari/setcursor.s(7)
decsp1 (decsp1.o):
    screen.o                  src/screen.s(469)
    config.o                  src/config.s(957)
    config.o                  src/config.s(957)
    diskulator.o              src/diskulator.s(1717)
    diskulator.o              src/diskulator.s(1717)
    diskulator.o              src/diskulator.s(1717)
    diskulator.o              src/diskulator.s(1717)
decsp2 (decsp2.o):
    screen.o                  src/screen.s(469)
    config.o                  src/config.s(957)
    config.o                  src/config.s(957)
    config.o                  src/config.s(957)
    config.o                  src/config.s(957)
    config.o                  src/config.s(957)
    config.o                  src/config.s(957)
    config.o                  src/config.s(957)
    diskulator.o              src/diskulator.s(1717)
    diskulator.o              src/diskulator.s(1717)
    diskulator.o              src/diskulator.s(1717)
    diskulator.o              src/diskulator.s(1717)
    diskulator.o              src/diskulator.s(1717)
    diskulator.o              src/diskulator.s(1717)
decsp4 (decsp4.o):
    config.o                  src/config.s(957)
    diskulator.o              src/diskulator.s(1717)
    diskulator.o              src/diskulator.s(1717)
decsp5 (decsp5.o):
    screen.o                  src/screen.s(469)
    config.o                  src/config.s(957)
decsp6 (decsp6.o):
    diskulator.o              src/diskulator.s(1717)
donelib (condes.o):
    crt0.o                    src/crt0.s(14)
incsp1 (incsp1.o):
    config.o                  src/config.s(957)
    config.o                  src/config.s(957)
    config.o                  src/config.s(957)
    diskulator.o              src/diskulator.s(1717)
    diskulator.o              src/diskulator.s(1717)
    diskulator.o              src/diskulator.s(1717)
    bar.o                     src/bar.s(413)
incsp2 (incsp2.o):
    staspidx.o                runtime/staspidx.s(8)
    popptr1.o                 runtime/popptr1.s(8)
    config.o                  src/config.s(957)
    config.o                  src/config.s(957)
    diskulator.o              src/diskulator.s(1717)
    diskulator.o              src/diskulator.s(1717)
    bar.o                     src/bar.s(413)
incsp3 (incsp3.o):
    diskulator.o              src/diskulator.s(1717)
    diskulator.o              src/diskulator.s(1717)
incsp4 (incsp4.o):
    diskulator.o              src/diskulator.s(1717)
    diskulator.o              src/diskulator.s(1717)
    diskulator.o              src/diskulator.s(1717)
incsp5 (incsp5.o):
    screen.o                  src/screen.s(469)
    config.o                  src/config.s(957)
incsp8 (incsp8.o):
    config.o                  src/config.s(957)
initlib (condes.o):
    crt0.o                    src/crt0.s(14)
popax (incsp2.o):
    strcpy.o                  common/strcpy.s(8)
    memset.o                  common/memset.s(19)
    memcpy.o                  common/memcpy.s(14)
popptr1 (popptr1.o):
    mul8.o                    runtime/mul8.s(9)
    memcpy.o                  common/memcpy.s(14)
ptr1 (zeropage.o):
    zerobss.o                 common/zerobss.s(9)
    strcpy.o                  common/strcpy.s(9)
    staspidx.o                runtime/staspidx.s(9)
    popptr1.o                 runtime/popptr1.s(9)
    mul8.o                    runtime/mul8.s(10)
    memset.o                  common/memset.s(20)
    memcpy.o                  common/memcpy.s(15)
    screen.o                  src/screen.s(11)
    main.o                    src/main.s(11)
    diskulator.o              src/diskulator.s(11)
    bar.o                     src/bar.s(11)
ptr2 (zeropage.o):
    strcpy.o                  common/strcpy.s(9)
    memset.o                  common/memset.s(20)
    memcpy.o                  common/memcpy.s(15)
    itoa.o                    common/itoa.s(11)
ptr3 (zeropage.o):
    memset.o                  common/memset.s(20)
    memcpy.o                  common/memcpy.s(15)
    itoa.o                    common/itoa.s(11)
ptr4 (zeropage.o):
    mul8.o                    runtime/mul8.s(10)
pusha (pusha.o):
    config.o                  src/config.s(957)
    config.o                  src/config.s(957)
    config.o                  src/config.s(957)
    config.o                  src/config.s(957)
    config.o                  src/config.s(957)
    config.o                  src/config.s(957)
    diskulator.o              src/diskulator.s(1717)
    diskulator.o              src/diskulator.s(1717)
    diskulator.o              src/diskulator.s(1717)
    diskulator.o              src/diskulator.s(1717)
    diskulator.o              src/diskulator.s(1717)
    diskulator.o              src/diskulator.s(1717)
    bar.o                     src/bar.s(413)
    bar.o                     src/bar.s(413)
pusha0 (pushax.o):
    screen.o                  src/screen.s(469)
    screen.o                  src/screen.s(469)
    diskulator.o              src/diskulator.s(1717)
    diskulator.o              src/diskulator.s(1717)
    diskulator.o              src/diskulator.s(1717)
    diskulator.o              src/diskulator.s(1717)
    diskulator.o              src/diskulator.s(1717)
pushax (pushax.o):
    callmain.o                runtime/callmain.s(11)
    screen.o                  src/screen.s(469)
    screen.o                  src/screen.s(469)
    screen.o                  src/screen.s(469)
    config.o                  src/config.s(957)
    config.o                  src/config.s(957)
    main.o                    src/main.s(188)
    diskulator.o              src/diskulator.s(1717)
    diskulator.o              src/diskulator.s(1717)
    bar.o                     src/bar.s(413)
pushwysp (pushwsp.o):
    screen.o                  src/screen.s(469)
return1 (return1.o):
    kbhit.o                   atari/kbhit.s(8)
setcursor (setcursor.o):
    cgetc.o                   atari/cgetc.s(10)
sp (zeropage.o):
    staspidx.o                runtime/staspidx.s(9)
    pushwsp.o                 runtime/pushwsp.s(8)
    pushax.o                  runtime/pushax.s(8)
    pusha.o                   runtime/pusha.s(8)
    popptr1.o                 runtime/popptr1.s(9)
    memset.o                  common/memset.s(20)
    memcpy.o                  common/memcpy.s(15)
    itoa.o                    common/itoa.s(11)
    incsp2.o                  runtime/incsp2.s(8)
    incsp1.o                  runtime/incsp1.s(8)
    decsp6.o                  runtime/decsp6.s(8)
    decsp5.o                  runtime/decsp5.s(8)
    decsp4.o                  runtime/decsp4.s(8)
    decsp2.o                  runtime/decsp2.s(8)
    decsp1.o                  runtime/decsp1.s(8)
    addysp.o                  runtime/addysp.s(8)
    addeqsp.o                 runtime/addeqsp.s(8)
    add.o                     runtime/add.s(12)
    crt0.o                    /home/thomc/Workspace/cc65/asminc/zeropage.inc(11)
    screen.o                  src/screen.s(10)
    config.o                  src/config.s(10)
    diskulator.o              src/diskulator.s(10)
    bar.o                     src/bar.s(10)
sreg (zeropage.o):
    itoa.o                    common/itoa.s(11)
    screen.o                  src/screen.s(10)
staspidx (staspidx.o):
    screen.o                  src/screen.s(469)
tmp1 (zeropage.o):
    staspidx.o                runtime/staspidx.s(9)
    itoa.o                    common/itoa.s(11)
    aslax4.o                  runtime/aslax4.s(8)
    add.o                     runtime/add.s(12)
    screen.o                  src/screen.s(11)
    diskulator.o              src/diskulator.s(11)
tmp4 (zeropage.o):
    mul40.o                   common/mul40.s(16)
tosadda0 (add.o):
    screen.o                  src/screen.s(469)
tosaddax (add.o):
    screen.o                  src/screen.s(469)
    screen.o                  src/screen.s(469)
tosmula0 (mul8.o):
    diskulator.o              src/diskulator.s(1717)
    diskulator.o              src/diskulator.s(1717)
    diskulator.o              src/diskulator.s(1717)
    diskulator.o              src/diskulator.s(1717)
    diskulator.o              src/diskulator.s(1717)
tosumula0 (mul8.o):
    screen.o                  src/screen.s(469)
    screen.o                  src/screen.s(469)
zerobss (zerobss.o):
    crt0.o                    src/crt0.s(15)

